target datalayout = "e-m:e-p270:32:32-p271:32:32-p272:64:64-i64:64-i128:128-f80:128-n8:16:32:64-S128"
target triple = "x86_64-pc-linux-gnu"

%"class.std::__cxx11::basic_string" = type { %"struct.std::__cxx11::basic_string<char>::_Alloc_hider", i64, %union.anon }
%"struct.std::__cxx11::basic_string<char>::_Alloc_hider" = type { ptr }
%union.anon = type { i64, [8 x i8] }
%struct.t_xlate_atom = type { ptr, ptr, ptr, ptr }
%"class.std::filesystem::__cxx11::path" = type { %"class.std::__cxx11::basic_string", %"struct.std::filesystem::__cxx11::path::_List" }
%"struct.std::filesystem::__cxx11::path::_List" = type { %"class.std::unique_ptr" }
%"class.std::unique_ptr" = type { %"struct.std::__uniq_ptr_data" }
%"struct.std::__uniq_ptr_data" = type { %"class.std::__uniq_ptr_impl" }
%"class.std::__uniq_ptr_impl" = type { %"class.std::tuple" }
%"class.std::tuple" = type { %"struct.std::_Tuple_impl" }
%"struct.std::_Tuple_impl" = type { %"struct.std::_Head_base.1" }
%"struct.std::_Head_base.1" = type { ptr }

@.str.8 = private unnamed_addr constant [9 x i8] c"%s%s%s%s\00", align 1
@.str.9 = private unnamed_addr constant [3 x i8] c"%d\00", align 1
@.str.10 = private unnamed_addr constant [129 x i8] c"generated/home/dtcxzyw/WorkSpace/Projects/compilers/llvm-opt-benchmark/bench/gromacs/gromacs/src/gromacs/gmxpreprocess/xlate.cpp\00", align 1
@.str.11 = private unnamed_addr constant [66 x i8] c"Expected a residue name and two atom names in file '%s', not '%s'\00", align 1
@.str.12 = private unnamed_addr constant [3 x i8] c"xl\00", align 1
@.str.13 = private unnamed_addr constant [2 x i8] c"*\00", align 1

; Function Attrs: mustprogress uwtable
define internal void @_ZL15gmx_srenew_implI12t_xlate_atomEvPKcS2_iRPT_m(ptr noundef %0, ptr noundef %1, i32 noundef %2, ptr noundef nonnull align 8 dereferenceable(8) %3, i64 noundef %4) #0 {
  %6 = alloca ptr, align 8
  %7 = alloca ptr, align 8
  %8 = alloca i32, align 4
  %9 = alloca ptr, align 8
  %10 = alloca i64, align 8
  store ptr %0, ptr %6, align 8
  store ptr %1, ptr %7, align 8
  store i32 %2, ptr %8, align 4
  store ptr %3, ptr %9, align 8
  store i64 %4, ptr %10, align 8
  %11 = load ptr, ptr %6, align 8
  %12 = load ptr, ptr %7, align 8
  %13 = load i32, ptr %8, align 4
  %14 = load ptr, ptr %9, align 8
  %15 = load ptr, ptr %14, align 8
  %16 = load i64, ptr %10, align 8
  %17 = call noundef ptr @_Z12save_reallocPKcS0_iPvmm(ptr noundef %11, ptr noundef %12, i32 noundef %13, ptr noundef %15, i64 noundef %16, i64 noundef 32)
  %18 = load ptr, ptr %9, align 8
  store ptr %17, ptr %18, align 8
  ret void
}

; Function Attrs: mustprogress uwtable
define internal void @_ZL11get_xlatomsRKNSt10filesystem7__cxx114pathEP8_IO_FILEPiPP12t_xlate_atom(ptr noundef nonnull align 8 dereferenceable(40) %0, ptr noundef %1, ptr noundef %2, ptr noundef %3) #0 personality ptr @__gxx_personality_v0 {
  %5 = alloca ptr, align 8
  %6 = alloca ptr, align 8
  %7 = alloca ptr, align 8
  %8 = alloca ptr, align 8
  %9 = alloca [4096 x i8], align 16
  %10 = alloca [1024 x i8], align 16
  %11 = alloca [1024 x i8], align 16
  %12 = alloca [1024 x i8], align 16
  %13 = alloca [1024 x i8], align 16
  %14 = alloca ptr, align 8
  %15 = alloca i32, align 4
  %16 = alloca i32, align 4
  %17 = alloca i32, align 4
  %18 = alloca ptr, align 8
  %19 = alloca %"class.std::filesystem::__cxx11::path", align 8
  %20 = alloca ptr, align 8
  %21 = alloca i32, align 4
  %22 = alloca %"class.std::filesystem::__cxx11::path", align 8
  %23 = alloca %"class.std::__cxx11::basic_string", align 8
  %24 = alloca %"class.std::__cxx11::basic_string", align 8
  store ptr %0, ptr %5, align 8
  store ptr %1, ptr %6, align 8
  store ptr %2, ptr %7, align 8
  store ptr %3, ptr %8, align 8
  %25 = load ptr, ptr %5, align 8
  call void @_Z19fflib_filename_baseRKNSt10filesystem7__cxx114pathE(ptr dead_on_unwind writable sret(%"class.std::filesystem::__cxx11::path") align 8 %19, ptr noundef nonnull align 8 dereferenceable(40) %25)
  %26 = load ptr, ptr %7, align 8
  %27 = load i32, ptr %26, align 4
  store i32 %27, ptr %15, align 4
  %28 = load ptr, ptr %8, align 8
  %29 = load ptr, ptr %28, align 8
  store ptr %29, ptr %18, align 8
  br label %30

30:                                               ; preds = %131, %53, %4
  %31 = load ptr, ptr %6, align 8
  %32 = getelementptr inbounds [4096 x i8], ptr %9, i64 0, i64 0
  %33 = invoke noundef zeroext i1 @_Z10get_a_lineP8_IO_FILEPci(ptr noundef %31, ptr noundef %32, i32 noundef 4096)
          to label %34 unwind label %54

34:                                               ; preds = %30
  br i1 %33, label %35, label %139

35:                                               ; preds = %34
  %36 = getelementptr inbounds [4096 x i8], ptr %9, i64 0, i64 0
  %37 = getelementptr inbounds [1024 x i8], ptr %11, i64 0, i64 0
  %38 = getelementptr inbounds [1024 x i8], ptr %10, i64 0, i64 0
  %39 = getelementptr inbounds [1024 x i8], ptr %12, i64 0, i64 0
  %40 = getelementptr inbounds [1024 x i8], ptr %13, i64 0, i64 0
  %41 = call i32 (ptr, ptr, ...) @__isoc99_sscanf(ptr noundef %36, ptr noundef @.str.8, ptr noundef %37, ptr noundef %38, ptr noundef %39, ptr noundef %40) #9
  store i32 %41, ptr %16, align 4
  %42 = load i32, ptr %16, align 4
  %43 = icmp eq i32 %42, 1
  br i1 %43, label %44, label %58

44:                                               ; preds = %35
  %45 = load i32, ptr %15, align 4
  %46 = load ptr, ptr %7, align 8
  %47 = load i32, ptr %46, align 4
  %48 = icmp eq i32 %45, %47
  br i1 %48, label %49, label %58

49:                                               ; preds = %44
  %50 = getelementptr inbounds [1024 x i8], ptr %11, i64 0, i64 0
  %51 = call i32 (ptr, ptr, ...) @__isoc99_sscanf(ptr noundef %50, ptr noundef @.str.9, ptr noundef %17) #9
  %52 = icmp eq i32 %51, 1
  br i1 %52, label %53, label %58

53:                                               ; preds = %49
  br label %30, !llvm.loop !10

54:                                               ; preds = %123, %120, %94, %81, %77, %61, %30
  %55 = landingpad { ptr, i32 }
          cleanup
  %56 = extractvalue { ptr, i32 } %55, 0
  store ptr %56, ptr %20, align 8
  %57 = extractvalue { ptr, i32 } %55, 1
  store i32 %57, ptr %21, align 4
  br label %144

58:                                               ; preds = %49, %44, %35
  %59 = load i32, ptr %16, align 4
  %60 = icmp ne i32 %59, 3
  br i1 %60, label %61, label %77

61:                                               ; preds = %58
  invoke void @_ZNSt10filesystem7__cxx114pathC2IA129_cS1_EERKT_NS1_6formatE(ptr noundef nonnull align 8 dereferenceable(40) %22, ptr noundef nonnull align 1 dereferenceable(129) @.str.10, i8 noundef zeroext 2)
          to label %62 unwind label %54

62:                                               ; preds = %61
  %63 = load ptr, ptr %5, align 8
  invoke void @_ZNKSt10filesystem7__cxx114path6stringEv(ptr dead_on_unwind writable sret(%"class.std::__cxx11::basic_string") align 8 %23, ptr noundef nonnull align 8 dereferenceable(40) %63)
          to label %64 unwind label %68

64:                                               ; preds = %62
  %65 = call noundef ptr @_ZNKSt7__cxx1112basic_stringIcSt11char_traitsIcESaIcEE5c_strEv(ptr noundef nonnull align 8 dereferenceable(32) %23) #9
  %66 = getelementptr inbounds [4096 x i8], ptr %9, i64 0, i64 0
  invoke void (i32, ptr, i32, ptr, ...) @_Z9gmx_fataliRKNSt10filesystem7__cxx114pathEiPKcz(i32 noundef 0, ptr noundef nonnull align 8 dereferenceable(40) %22, i32 noundef 89, ptr noundef @.str.11, ptr noundef %65, ptr noundef %66) #11
          to label %67 unwind label %72

67:                                               ; preds = %64
  unreachable

68:                                               ; preds = %62
  %69 = landingpad { ptr, i32 }
          cleanup
  %70 = extractvalue { ptr, i32 } %69, 0
  store ptr %70, ptr %20, align 8
  %71 = extractvalue { ptr, i32 } %69, 1
  store i32 %71, ptr %21, align 4
  br label %76

72:                                               ; preds = %64
  %73 = landingpad { ptr, i32 }
          cleanup
  %74 = extractvalue { ptr, i32 } %73, 0
  store ptr %74, ptr %20, align 8
  %75 = extractvalue { ptr, i32 } %73, 1
  store i32 %75, ptr %21, align 4
  call void @_ZNSt7__cxx1112basic_stringIcSt11char_traitsIcESaIcEED1Ev(ptr noundef nonnull align 8 dereferenceable(32) %23) #9
  br label %76

76:                                               ; preds = %72, %68
  call void @_ZNSt10filesystem7__cxx114pathD2Ev(ptr noundef nonnull align 8 dereferenceable(40) %22) #9
  br label %144

77:                                               ; preds = %58
  %78 = load i32, ptr %15, align 4
  %79 = add nsw i32 %78, 1
  %80 = sext i32 %79 to i64
  invoke void @_ZL15gmx_srenew_implI12t_xlate_atomEvPKcS2_iRPT_m(ptr noundef @.str.12, ptr noundef @.str.10, i32 noundef 95, ptr noundef nonnull align 8 dereferenceable(8) %18, i64 noundef %80)
          to label %81 unwind label %54

81:                                               ; preds = %77
  invoke void @_ZNKSt10filesystem7__cxx114path6stringEv(ptr dead_on_unwind writable sret(%"class.std::__cxx11::basic_string") align 8 %24, ptr noundef nonnull align 8 dereferenceable(40) %19)
          to label %82 unwind label %54

82:                                               ; preds = %81
  %83 = call noundef ptr @_ZNKSt7__cxx1112basic_stringIcSt11char_traitsIcESaIcEE5c_strEv(ptr noundef nonnull align 8 dereferenceable(32) %24) #9
  %84 = invoke noundef ptr @_Z10gmx_strdupPKc(ptr noundef %83)
          to label %85 unwind label %103

85:                                               ; preds = %82
  %86 = load ptr, ptr %18, align 8
  %87 = load i32, ptr %15, align 4
  %88 = sext i32 %87 to i64
  %89 = getelementptr inbounds %struct.t_xlate_atom, ptr %86, i64 %88
  %90 = getelementptr inbounds %struct.t_xlate_atom, ptr %89, i32 0, i32 0
  store ptr %84, ptr %90, align 8
  call void @_ZNSt7__cxx1112basic_stringIcSt11char_traitsIcESaIcEED1Ev(ptr noundef nonnull align 8 dereferenceable(32) %24) #9
  %91 = getelementptr inbounds [1024 x i8], ptr %11, i64 0, i64 0
  %92 = call i32 @strcmp(ptr noundef %91, ptr noundef @.str.13) #10
  %93 = icmp ne i32 %92, 0
  br i1 %93, label %94, label %107

94:                                               ; preds = %85
  %95 = getelementptr inbounds [1024 x i8], ptr %11, i64 0, i64 0
  %96 = invoke noundef ptr @_Z10gmx_strdupPKc(ptr noundef %95)
          to label %97 unwind label %54

97:                                               ; preds = %94
  %98 = load ptr, ptr %18, align 8
  %99 = load i32, ptr %15, align 4
  %100 = sext i32 %99 to i64
  %101 = getelementptr inbounds %struct.t_xlate_atom, ptr %98, i64 %100
  %102 = getelementptr inbounds %struct.t_xlate_atom, ptr %101, i32 0, i32 1
  store ptr %96, ptr %102, align 8
  br label %113

103:                                              ; preds = %82
  %104 = landingpad { ptr, i32 }
          cleanup
  %105 = extractvalue { ptr, i32 } %104, 0
  store ptr %105, ptr %20, align 8
  %106 = extractvalue { ptr, i32 } %104, 1
  store i32 %106, ptr %21, align 4
  call void @_ZNSt7__cxx1112basic_stringIcSt11char_traitsIcESaIcEED1Ev(ptr noundef nonnull align 8 dereferenceable(32) %24) #9
  br label %144

107:                                              ; preds = %85
  %108 = load ptr, ptr %18, align 8
  %109 = load i32, ptr %15, align 4
  %110 = sext i32 %109 to i64
  %111 = getelementptr inbounds %struct.t_xlate_atom, ptr %108, i64 %110
  %112 = getelementptr inbounds %struct.t_xlate_atom, ptr %111, i32 0, i32 1
  store ptr null, ptr %112, align 8
  br label %113

113:                                              ; preds = %107, %97
  br label %114

114:                                              ; preds = %118, %113
  %115 = getelementptr inbounds [1024 x i8], ptr %10, i64 0, i64 0
  %116 = call noundef ptr @strchr(ptr noundef %115, i32 noundef 95) #10
  store ptr %116, ptr %14, align 8
  %117 = icmp ne ptr %116, null
  br i1 %117, label %118, label %120

118:                                              ; preds = %114
  %119 = load ptr, ptr %14, align 8
  store i8 32, ptr %119, align 1
  br label %114, !llvm.loop !11

120:                                              ; preds = %114
  %121 = getelementptr inbounds [1024 x i8], ptr %10, i64 0, i64 0
  %122 = invoke noundef ptr @_Z10gmx_strdupPKc(ptr noundef %121)
          to label %123 unwind label %54

123:                                              ; preds = %120
  %124 = load ptr, ptr %18, align 8
  %125 = load i32, ptr %15, align 4
  %126 = sext i32 %125 to i64
  %127 = getelementptr inbounds %struct.t_xlate_atom, ptr %124, i64 %126
  %128 = getelementptr inbounds %struct.t_xlate_atom, ptr %127, i32 0, i32 2
  store ptr %122, ptr %128, align 8
  %129 = getelementptr inbounds [1024 x i8], ptr %12, i64 0, i64 0
  %130 = invoke noundef ptr @_Z10gmx_strdupPKc(ptr noundef %129)
          to label %131 unwind label %54

131:                                              ; preds = %123
  %132 = load ptr, ptr %18, align 8
  %133 = load i32, ptr %15, align 4
  %134 = sext i32 %133 to i64
  %135 = getelementptr inbounds %struct.t_xlate_atom, ptr %132, i64 %134
  %136 = getelementptr inbounds %struct.t_xlate_atom, ptr %135, i32 0, i32 3
  store ptr %130, ptr %136, align 8
  %137 = load i32, ptr %15, align 4
  %138 = add nsw i32 %137, 1
  store i32 %138, ptr %15, align 4
  br label %30, !llvm.loop !10

139:                                              ; preds = %34
  %140 = load i32, ptr %15, align 4
  %141 = load ptr, ptr %7, align 8
  store i32 %140, ptr %141, align 4
  %142 = load ptr, ptr %18, align 8
  %143 = load ptr, ptr %8, align 8
  store ptr %142, ptr %143, align 8
  call void @_ZNSt10filesystem7__cxx114pathD2Ev(ptr noundef nonnull align 8 dereferenceable(40) %19) #9
  ret void

144:                                              ; preds = %103, %76, %54
  call void @_ZNSt10filesystem7__cxx114pathD2Ev(ptr noundef nonnull align 8 dereferenceable(40) %19) #9
  br label %145

145:                                              ; preds = %144
  %146 = load ptr, ptr %20, align 8
  %147 = load i32, ptr %21, align 4
  %148 = insertvalue { ptr, i32 } poison, ptr %146, 0
  %149 = insertvalue { ptr, i32 } %148, i32 %147, 1
  resume { ptr, i32 } %149
}