; Function Attrs: mustprogress uwtable
define internal fastcc void @_ZL11get_xlatomsRKNSt10filesystem7__cxx114pathEP8_IO_FILEPiPP12t_xlate_atom(ptr noundef nonnull align 8 dereferenceable(40) %0, ptr noundef %1, ptr nocapture noundef %2, ptr nocapture noundef %3) unnamed_addr #0 personality ptr @__gxx_personality_v0 {
  %5 = alloca %"class.std::allocator", align 1
  %6 = alloca [4096 x i8], align 16
  %7 = alloca [1024 x i8], align 16
  %8 = alloca [1024 x i8], align 16
  %9 = alloca [1024 x i8], align 16
  %10 = alloca [1024 x i8], align 16
  %11 = alloca i32, align 4
  %12 = alloca %"class.std::filesystem::__cxx11::path", align 8
  %13 = alloca %"class.std::filesystem::__cxx11::path", align 8
  %14 = alloca %"class.std::__cxx11::basic_string", align 8
  %15 = alloca %"class.std::__cxx11::basic_string", align 8
  call void @_Z19fflib_filename_baseRKNSt10filesystem7__cxx114pathE(ptr dead_on_unwind nonnull writable sret(%"class.std::filesystem::__cxx11::path") align 8 %12, ptr noundef nonnull align 8 dereferenceable(40) %0)
  %16 = load i32, ptr %2, align 4
  %17 = load ptr, ptr %3, align 8
  %18 = sext i32 %16 to i64
  br label %.outer

.outer:                                           ; preds = %65, %4
  %indvars.iv = phi i64 [ %indvars.iv.next, %65 ], [ %18, %4 ]
  %.0.ph = phi ptr [ %42, %65 ], [ %17, %4 ]
  %19 = trunc nsw i64 %indvars.iv to i32
  br label %20

20:                                               ; preds = %.outer, %28
  %21 = invoke noundef zeroext i1 @_Z10get_a_lineP8_IO_FILEPci(ptr noundef %1, ptr noundef nonnull %6, i32 noundef 4096)
          to label %22 unwind label %.loopexit.loopexit

22:                                               ; preds = %20
  br i1 %21, label %23, label %67

23:                                               ; preds = %22
  %24 = call i32 (ptr, ptr, ...) @__isoc99_sscanf(ptr noundef nonnull %6, ptr noundef nonnull @.str.8, ptr noundef nonnull %8, ptr noundef nonnull %7, ptr noundef nonnull %9, ptr noundef nonnull %10) #11
  switch i32 %24, label %31 [
    i32 1, label %25
    i32 3, label %41
  ]

25:                                               ; preds = %23
  %26 = load i32, ptr %2, align 4
  %27 = icmp eq i32 %26, %19
  br i1 %27, label %28, label %31

28:                                               ; preds = %25
  %29 = call i32 (ptr, ptr, ...) @__isoc99_sscanf(ptr noundef nonnull %8, ptr noundef nonnull @.str.9, ptr noundef nonnull %11) #11
  %30 = icmp eq i32 %29, 1
  br i1 %30, label %20, label %31, !llvm.loop !12

.loopexit.loopexit:                               ; preds = %20
  %lpad.loopexit36 = landingpad { ptr, i32 }
          cleanup
  br label %.body

.loopexit.loopexit.split-lp:                      ; preds = %41, %62, %._crit_edge, %52
  %lpad.loopexit.split-lp37 = landingpad { ptr, i32 }
          cleanup
  br label %.body

.loopexit.split-lp:                               ; preds = %31
  %lpad.loopexit.split-lp = landingpad { ptr, i32 }
          cleanup
  br label %.body

31:                                               ; preds = %25, %28, %23
  invoke void @_ZNSt10filesystem7__cxx114pathC2IA129_cS1_EERKT_NS1_6formatE(ptr noundef nonnull align 8 dereferenceable(40) %13, ptr noundef nonnull align 1 dereferenceable(129) @.str.10, i8 noundef zeroext 2)
          to label %32 unwind label %.loopexit.split-lp

32:                                               ; preds = %31
  invoke void @_ZNKSt10filesystem7__cxx114path6stringEv(ptr dead_on_unwind nonnull writable sret(%"class.std::__cxx11::basic_string") align 8 %14, ptr noundef nonnull align 8 dereferenceable(40) %0)
          to label %33 unwind label %36

33:                                               ; preds = %32
  %34 = call noundef ptr @_ZNKSt7__cxx1112basic_stringIcSt11char_traitsIcESaIcEE5c_strEv(ptr noundef nonnull align 8 dereferenceable(32) %14) #11
  invoke void (i32, ptr, i32, ptr, ...) @_Z9gmx_fataliRKNSt10filesystem7__cxx114pathEiPKcz(i32 noundef 0, ptr noundef nonnull align 8 dereferenceable(40) %13, i32 noundef 89, ptr noundef nonnull @.str.11, ptr noundef %34, ptr noundef nonnull %6) #14
          to label %35 unwind label %38

35:                                               ; preds = %33
  unreachable

36:                                               ; preds = %32
  %37 = landingpad { ptr, i32 }
          cleanup
  br label %40

38:                                               ; preds = %33
  %39 = landingpad { ptr, i32 }
          cleanup
  call void @_ZNSt7__cxx1112basic_stringIcSt11char_traitsIcESaIcEED1Ev(ptr noundef nonnull align 8 dereferenceable(32) %14) #11
  br label %40

40:                                               ; preds = %38, %36
  %.pn = phi { ptr, i32 } [ %39, %38 ], [ %37, %36 ]
  call void @_ZNSt10filesystem7__cxx114pathD2Ev(ptr noundef nonnull align 8 dereferenceable(40) %13) #11
  br label %.body

41:                                               ; preds = %23
  %indvars.iv.next = add nsw i64 %indvars.iv, 1
  %42 = invoke noundef ptr @_Z12save_reallocPKcS0_iPvmm(ptr noundef nonnull @.str.12, ptr noundef nonnull @.str.10, i32 noundef 95, ptr noundef %.0.ph, i64 noundef %indvars.iv.next, i64 noundef 32)
          to label %_ZL15gmx_srenew_implI12t_xlate_atomEvPKcS2_iRPT_m.exit unwind label %.loopexit.loopexit.split-lp

_ZL15gmx_srenew_implI12t_xlate_atomEvPKcS2_iRPT_m.exit: ; preds = %41
  call void @llvm.lifetime.start.p0(i64 1, ptr nonnull %5)
  call void @_ZNSaIcEC1Ev(ptr noundef nonnull align 1 dereferenceable(1) %5) #11, !noalias !13
  %43 = call noundef ptr @_ZNKSt7__cxx1112basic_stringIcSt11char_traitsIcESaIcEE5c_strEv(ptr noundef nonnull align 8 dereferenceable(32) %12) #11, !noalias !16
  %44 = call noundef i64 @_ZNKSt7__cxx1112basic_stringIcSt11char_traitsIcESaIcEE6lengthEv(ptr noundef nonnull align 8 dereferenceable(32) %12) #11, !noalias !16
  invoke void @_ZNSt7__cxx1112basic_stringIcSt11char_traitsIcESaIcEEC1EPKcmRKS3_(ptr noundef nonnull align 8 dereferenceable(32) %15, ptr noundef %43, i64 noundef %44, ptr noundef nonnull align 1 dereferenceable(1) %5)
          to label %47 unwind label %45

45:                                               ; preds = %_ZL15gmx_srenew_implI12t_xlate_atomEvPKcS2_iRPT_m.exit
  %46 = landingpad { ptr, i32 }
          cleanup
  call void @_ZNSaIcED1Ev(ptr noundef nonnull align 1 dereferenceable(1) %5) #11
  br label %.body

47:                                               ; preds = %_ZL15gmx_srenew_implI12t_xlate_atomEvPKcS2_iRPT_m.exit
  call void @_ZNSaIcED1Ev(ptr noundef nonnull align 1 dereferenceable(1) %5) #11
  call void @llvm.lifetime.end.p0(i64 1, ptr nonnull %5)
  %48 = call noundef ptr @_ZNKSt7__cxx1112basic_stringIcSt11char_traitsIcESaIcEE5c_strEv(ptr noundef nonnull align 8 dereferenceable(32) %15) #11
  %49 = invoke noundef ptr @_Z10gmx_strdupPKc(ptr noundef %48)
          to label %50 unwind label %54

50:                                               ; preds = %47
  %51 = getelementptr inbounds %struct.t_xlate_atom, ptr %42, i64 %indvars.iv
  store ptr %49, ptr %51, align 8
  call void @_ZNSt7__cxx1112basic_stringIcSt11char_traitsIcESaIcEED1Ev(ptr noundef nonnull align 8 dereferenceable(32) %15) #11
  %lhsv = load i16, ptr %8, align 16
  %.not26 = icmp eq i16 %lhsv, 42
  br i1 %.not26, label %56, label %52

52:                                               ; preds = %50
  %53 = invoke noundef ptr @_Z10gmx_strdupPKc(ptr noundef nonnull %8)
          to label %56 unwind label %.loopexit.loopexit.split-lp

54:                                               ; preds = %47
  %55 = landingpad { ptr, i32 }
          cleanup
  call void @_ZNSt7__cxx1112basic_stringIcSt11char_traitsIcESaIcEED1Ev(ptr noundef nonnull align 8 dereferenceable(32) %15) #11
  br label %.body

56:                                               ; preds = %50, %52
  %.sink = phi ptr [ %53, %52 ], [ null, %50 ]
  %57 = getelementptr inbounds %struct.t_xlate_atom, ptr %42, i64 %indvars.iv, i32 1
  store ptr %.sink, ptr %57, align 8
  %58 = call noundef ptr @strchr(ptr noundef nonnull dereferenceable(1) %7, i32 noundef 95) #13
  %.not2749 = icmp eq ptr %58, null
  br i1 %.not2749, label %._crit_edge, label %.lr.ph

.lr.ph:                                           ; preds = %56, %.lr.ph
  %59 = phi ptr [ %60, %.lr.ph ], [ %58, %56 ]
  store i8 32, ptr %59, align 1
  %60 = call noundef ptr @strchr(ptr noundef nonnull dereferenceable(1) %7, i32 noundef 95) #13
  %.not27 = icmp eq ptr %60, null
  br i1 %.not27, label %._crit_edge, label %.lr.ph, !llvm.loop !19

._crit_edge:                                      ; preds = %.lr.ph, %56
  %61 = invoke noundef ptr @_Z10gmx_strdupPKc(ptr noundef nonnull %7)
          to label %62 unwind label %.loopexit.loopexit.split-lp

62:                                               ; preds = %._crit_edge
  %63 = getelementptr inbounds %struct.t_xlate_atom, ptr %42, i64 %indvars.iv, i32 2
  store ptr %61, ptr %63, align 8
  %64 = invoke noundef ptr @_Z10gmx_strdupPKc(ptr noundef nonnull %9)
          to label %65 unwind label %.loopexit.loopexit.split-lp

65:                                               ; preds = %62
  %66 = getelementptr inbounds %struct.t_xlate_atom, ptr %42, i64 %indvars.iv, i32 3
  store ptr %64, ptr %66, align 8
  br label %.outer, !llvm.loop !12

67:                                               ; preds = %22
  %68 = trunc nsw i64 %indvars.iv to i32
  store i32 %68, ptr %2, align 4
  store ptr %.0.ph, ptr %3, align 8
  %69 = getelementptr inbounds i8, ptr %12, i64 32
  %70 = load ptr, ptr %69, align 8
  %.not.i.i.i = icmp eq ptr %70, null
  br i1 %.not.i.i.i, label %_ZNSt10filesystem7__cxx114pathD2Ev.exit, label %71

71:                                               ; preds = %67
  call void @_ZNKSt10filesystem7__cxx114path5_List13_Impl_deleterclEPNS2_5_ImplE(ptr noundef nonnull align 1 dereferenceable(1) %69, ptr noundef nonnull %70) #11
  br label %_ZNSt10filesystem7__cxx114pathD2Ev.exit

_ZNSt10filesystem7__cxx114pathD2Ev.exit:          ; preds = %67, %71
  store ptr null, ptr %69, align 8
  call void @_ZNSt7__cxx1112basic_stringIcSt11char_traitsIcESaIcEED1Ev(ptr noundef nonnull align 8 dereferenceable(32) %12) #11
  ret void

.body:                                            ; preds = %.loopexit.split-lp, %.loopexit.loopexit.split-lp, %.loopexit.loopexit, %45, %54, %40
  %.pn.pn = phi { ptr, i32 } [ %.pn, %40 ], [ %55, %54 ], [ %46, %45 ], [ %lpad.loopexit.split-lp, %.loopexit.split-lp ], [ %lpad.loopexit36, %.loopexit.loopexit ], [ %lpad.loopexit.split-lp37, %.loopexit.loopexit.split-lp ]
  call void @_ZNSt10filesystem7__cxx114pathD2Ev(ptr noundef nonnull align 8 dereferenceable(40) %12) #11
  resume { ptr, i32 } %.pn.pn
}